target datalayout = "e-m:e-p270:32:32-p271:32:32-p272:64:64-i64:64-i128:128-f80:128-n8:16:32:64-S128"
target triple = "x86_64-pc-linux-gnu"

%struct._freshclam_dat_v1 = type { i32, [37 x i8], i64 }

@g_databaseDirectory = external global ptr, align 8
@g_maxAttempts = external global i32, align 4
@g_freshclamDat = external global ptr, align 8
@.str.33 = private unnamed_addr constant [24 x i8] c"Can't change dir to %s\0A\00", align 1
@.str.34 = private unnamed_addr constant [27 x i8] c"Current working dir is %s\0A\00", align 1
@.str.64 = private unnamed_addr constant [27 x i8] c"Trying again in 5 secs...\0A\00", align 1
@.str.68 = private unnamed_addr constant [58 x i8] c"Failed to query the local time for the retry-after date!\0A\00", align 1
@.str.69 = private unnamed_addr constant [18 x i8] c"%Y-%m-%d %H:%M:%S\00", align 1
@.str.70 = private unnamed_addr constant [83 x i8] c"FreshClam received error code 403 from the ClamAV Content Delivery Network (CDN).\0A\00", align 1
@.str.71 = private unnamed_addr constant [33 x i8] c"This could mean several things:\0A\00", align 1
@.str.72 = private unnamed_addr constant [67 x i8] c" 1. You are running an out-of-date version of ClamAV / FreshClam.\0A\00", align 1
@.str.73 = private unnamed_addr constant [90 x i8] c"    Ensure you are the most updated version by visiting https://www.clamav.net/downloads\0A\00", align 1
@.str.74 = private unnamed_addr constant [61 x i8] c" 2. Your network is explicitly denied by the FreshClam CDN.\0A\00", align 1
@.str.75 = private unnamed_addr constant [57 x i8] c"    In order to rectify this please check that you are:\0A\00", align 1
@.str.76 = private unnamed_addr constant [50 x i8] c"   a. Running an up-to-date version of FreshClam\0A\00", align 1
@.str.77 = private unnamed_addr constant [51 x i8] c"   b. Running FreshClam no more than once an hour\0A\00", align 1
@.str.81 = private unnamed_addr constant [52 x i8] c"      https://github.com/Cisco-Talos/clamav/issues\0A\00", align 1
@.str.82 = private unnamed_addr constant [60 x i8] c"      and we will investigate why your network is blocked.\0A\00", align 1
@g_lastRay = external global [21 x i8], align 16
@.str.83 = private unnamed_addr constant [67 x i8] c"      Please provide the following cf-ray id with your ticket: %s\0A\00", align 1
@.str.84 = private unnamed_addr constant [2 x i8] c"\0A\00", align 1
@.str.85 = private unnamed_addr constant [38 x i8] c"You are on cool-down until after: %s\0A\00", align 1
@.str.86 = private unnamed_addr constant [83 x i8] c"FreshClam received error code 429 from the ClamAV Content Delivery Network (CDN).\0A\00", align 1
@.str.87 = private unnamed_addr constant [56 x i8] c"This means that you have been rate limited by the CDN.\0A\00", align 1
@.str.88 = private unnamed_addr constant [67 x i8] c" 1. Run FreshClam no more than once an hour to check for updates.\0A\00", align 1
@.str.89 = private unnamed_addr constant [69 x i8] c"    FreshClam should check DNS first to see if an update is needed.\0A\00", align 1
@.str.90 = private unnamed_addr constant [76 x i8] c" 2. If you have more than 10 hosts on your network attempting to download,\0A\00", align 1
@.str.91 = private unnamed_addr constant [78 x i8] c"    it is recommended that you set up a private mirror on your network using\0A\00", align 1
@.str.92 = private unnamed_addr constant [78 x i8] c"    cvdupdate (https://pypi.org/project/cvdupdate/) to save bandwidth on the\0A\00", align 1
@.str.93 = private unnamed_addr constant [31 x i8] c"    CDN and your own network.\0A\00", align 1
@.str.94 = private unnamed_addr constant [78 x i8] c" 3. Please do not open a ticket asking for an exemption from the rate limit,\0A\00", align 1
@.str.95 = private unnamed_addr constant [29 x i8] c"    it will not be granted.\0A\00", align 1
@.str.110 = private unnamed_addr constant [46 x i8] c"fc_download_url_database: Invalid arguments.\0A\00", align 1
@.str.111 = private unnamed_addr constant [39 x i8] c"fc_download_url_database: %s updated.\0A\00", align 1
@.str.112 = private unnamed_addr constant [50 x i8] c"fc_download_url_database: %s already up-to-date.\0A\00", align 1
@.str.113 = private unnamed_addr constant [43 x i8] c"Update failed for custom database URL: %s\0A\00", align 1
@.str.114 = private unnamed_addr constant [64 x i8] c"   c. If you have checked (a) and (b), please open a ticket at\0A\00", align 1
@.str.115 = private unnamed_addr constant [73 x i8] c"Unexpected error when attempting to update from custom database URL: %s\0A\00", align 1

; Function Attrs: nounwind uwtable
define i32 @fc_download_url_database(ptr noundef %0, ptr noundef %1, ptr noundef %2) #0 {
  %4 = alloca ptr, align 8
  %5 = alloca ptr, align 8
  %6 = alloca ptr, align 8
  %7 = alloca i32, align 4
  %8 = alloca i32, align 4
  %9 = alloca i64, align 8
  %10 = alloca ptr, align 8
  %11 = alloca i32, align 4
  %12 = alloca [26 x i8], align 16
  %13 = alloca ptr, align 8
  %14 = alloca [26 x i8], align 16
  %15 = alloca ptr, align 8
  store ptr %0, ptr %4, align 8
  store ptr %1, ptr %5, align 8
  store ptr %2, ptr %6, align 8
  store i32 16, ptr %8, align 4
  store i64 1, ptr %9, align 8
  store ptr null, ptr %10, align 8
  %16 = load ptr, ptr %4, align 8
  %17 = icmp eq ptr null, %16
  br i1 %17, label %21, label %18

18:                                               ; preds = %3
  %19 = load ptr, ptr %6, align 8
  %20 = icmp eq ptr null, %19
  br i1 %20, label %21, label %23

21:                                               ; preds = %18, %3
  %22 = call i32 (i32, ptr, ...) @logg(i32 noundef 4, ptr noundef @.str.110)
  br label %141

23:                                               ; preds = %18
  %24 = load ptr, ptr %6, align 8
  store i32 0, ptr %24, align 4
  %25 = load ptr, ptr @g_databaseDirectory, align 8
  %26 = call i32 @chdir(ptr noundef %25) #10
  %27 = icmp ne i32 %26, 0
  br i1 %27, label %28, label %31

28:                                               ; preds = %23
  %29 = load ptr, ptr @g_databaseDirectory, align 8
  %30 = call i32 (i32, ptr, ...) @logg(i32 noundef 5, ptr noundef @.str.33, ptr noundef %29)
  store i32 3, ptr %8, align 4
  br label %141

31:                                               ; preds = %23
  %32 = load ptr, ptr @g_databaseDirectory, align 8
  %33 = call i32 (i32, ptr, ...) @logg(i32 noundef 2, ptr noundef @.str.34, ptr noundef %32)
  store i64 1, ptr %9, align 8
  br label %34

34:                                               ; preds = %136, %31
  %35 = load i64, ptr %9, align 8
  %36 = load i32, ptr @g_maxAttempts, align 4
  %37 = zext i32 %36 to i64
  %38 = icmp sle i64 %35, %37
  br i1 %38, label %39, label %139

39:                                               ; preds = %34
  store i32 0, ptr %11, align 4
  %40 = load ptr, ptr %4, align 8
  %41 = load ptr, ptr %5, align 8
  %42 = load i64, ptr %9, align 8
  %43 = load i32, ptr @g_maxAttempts, align 4
  %44 = zext i32 %43 to i64
  %45 = icmp eq i64 %42, %44
  %46 = select i1 %45, i32 1, i32 0
  %47 = load ptr, ptr %6, align 8
  %48 = call i32 @updatecustomdb(ptr noundef %40, ptr noundef %41, i32 noundef %46, ptr noundef %11, ptr noundef %10, ptr noundef %47)
  store i32 %48, ptr %7, align 4
  %49 = load i32, ptr %7, align 4
  switch i32 %49, label %131 [
    i32 0, label %50
    i32 5, label %61
    i32 7, label %61
    i32 11, label %61
    i32 17, label %74
    i32 18, label %107
  ]

50:                                               ; preds = %39
  %51 = load ptr, ptr %6, align 8
  %52 = load i32, ptr %51, align 4
  %53 = icmp ne i32 %52, 0
  br i1 %53, label %54, label %57

54:                                               ; preds = %50
  %55 = load ptr, ptr %10, align 8
  %56 = call i32 (i32, ptr, ...) @logg(i32 noundef 2, ptr noundef @.str.111, ptr noundef %55)
  br label %60

57:                                               ; preds = %50
  %58 = load ptr, ptr %10, align 8
  %59 = call i32 (i32, ptr, ...) @logg(i32 noundef 2, ptr noundef @.str.112, ptr noundef %58)
  br label %60

60:                                               ; preds = %57, %54
  br label %140

61:                                               ; preds = %39, %39, %39
  %62 = load i64, ptr %9, align 8
  %63 = load i32, ptr @g_maxAttempts, align 4
  %64 = zext i32 %63 to i64
  %65 = icmp slt i64 %62, %64
  br i1 %65, label %66, label %69

66:                                               ; preds = %61
  %67 = call i32 (i32, ptr, ...) @logg(i32 noundef 0, ptr noundef @.str.64)
  %68 = call i32 @sleep(i32 noundef 5)
  br label %73

69:                                               ; preds = %61
  %70 = load ptr, ptr %4, align 8
  %71 = call i32 (i32, ptr, ...) @logg(i32 noundef 0, ptr noundef @.str.113, ptr noundef %70)
  %72 = load i32, ptr %7, align 4
  store i32 %72, ptr %8, align 4
  br label %141

73:                                               ; preds = %66
  br label %135

74:                                               ; preds = %39
  %75 = load ptr, ptr @g_freshclamDat, align 8
  %76 = getelementptr inbounds %struct._freshclam_dat_v1, ptr %75, i32 0, i32 2
  %77 = call ptr @localtime(ptr noundef %76) #10
  store ptr %77, ptr %13, align 8
  %78 = load ptr, ptr %13, align 8
  %79 = icmp eq ptr null, %78
  br i1 %79, label %80, label %82

80:                                               ; preds = %74
  %81 = call i32 (i32, ptr, ...) @logg(i32 noundef 5, ptr noundef @.str.68)
  store i32 19, ptr %8, align 4
  br label %141

82:                                               ; preds = %74
  %83 = getelementptr inbounds [26 x i8], ptr %12, i64 0, i64 0
  %84 = load ptr, ptr %13, align 8
  %85 = call i64 @strftime(ptr noundef %83, i64 noundef 26, ptr noundef @.str.69, ptr noundef %84) #10
  %86 = call i32 (i32, ptr, ...) @logg(i32 noundef 4, ptr noundef @.str.70)
  %87 = call i32 (i32, ptr, ...) @logg(i32 noundef 0, ptr noundef @.str.71)
  %88 = call i32 (i32, ptr, ...) @logg(i32 noundef 0, ptr noundef @.str.72)
  %89 = call i32 (i32, ptr, ...) @logg(i32 noundef 0, ptr noundef @.str.73)
  %90 = call i32 (i32, ptr, ...) @logg(i32 noundef 0, ptr noundef @.str.74)
  %91 = call i32 (i32, ptr, ...) @logg(i32 noundef 0, ptr noundef @.str.75)
  %92 = call i32 (i32, ptr, ...) @logg(i32 noundef 0, ptr noundef @.str.76)
  %93 = call i32 (i32, ptr, ...) @logg(i32 noundef 0, ptr noundef @.str.77)
  %94 = call i32 (i32, ptr, ...) @logg(i32 noundef 0, ptr noundef @.str.114)
  %95 = call i32 (i32, ptr, ...) @logg(i32 noundef 0, ptr noundef @.str.81)
  %96 = call i32 (i32, ptr, ...) @logg(i32 noundef 0, ptr noundef @.str.82)
  %97 = load i8, ptr @g_lastRay, align 16
  %98 = zext i8 %97 to i32
  %99 = icmp ne i32 0, %98
  br i1 %99, label %100, label %103

100:                                              ; preds = %82
  %101 = call i32 (i32, ptr, ...) @logg(i32 noundef 0, ptr noundef @.str.83, ptr noundef @g_lastRay)
  %102 = call i32 (i32, ptr, ...) @logg(i32 noundef 0, ptr noundef @.str.84)
  br label %103

103:                                              ; preds = %100, %82
  %104 = getelementptr inbounds [26 x i8], ptr %12, i64 0, i64 0
  %105 = call i32 (i32, ptr, ...) @logg(i32 noundef 4, ptr noundef @.str.85, ptr noundef %104)
  %106 = load i32, ptr %7, align 4
  store i32 %106, ptr %8, align 4
  br label %141

107:                                              ; preds = %39
  %108 = load ptr, ptr @g_freshclamDat, align 8
  %109 = getelementptr inbounds %struct._freshclam_dat_v1, ptr %108, i32 0, i32 2
  %110 = call ptr @localtime(ptr noundef %109) #10
  store ptr %110, ptr %15, align 8
  %111 = load ptr, ptr %15, align 8
  %112 = icmp eq ptr null, %111
  br i1 %112, label %113, label %115

113:                                              ; preds = %107
  %114 = call i32 (i32, ptr, ...) @logg(i32 noundef 5, ptr noundef @.str.68)
  store i32 19, ptr %8, align 4
  br label %141

115:                                              ; preds = %107
  %116 = getelementptr inbounds [26 x i8], ptr %14, i64 0, i64 0
  %117 = load ptr, ptr %15, align 8
  %118 = call i64 @strftime(ptr noundef %116, i64 noundef 26, ptr noundef @.str.69, ptr noundef %117) #10
  %119 = call i32 (i32, ptr, ...) @logg(i32 noundef 4, ptr noundef @.str.86)
  %120 = call i32 (i32, ptr, ...) @logg(i32 noundef 0, ptr noundef @.str.87)
  %121 = call i32 (i32, ptr, ...) @logg(i32 noundef 0, ptr noundef @.str.88)
  %122 = call i32 (i32, ptr, ...) @logg(i32 noundef 0, ptr noundef @.str.89)
  %123 = call i32 (i32, ptr, ...) @logg(i32 noundef 0, ptr noundef @.str.90)
  %124 = call i32 (i32, ptr, ...) @logg(i32 noundef 0, ptr noundef @.str.91)
  %125 = call i32 (i32, ptr, ...) @logg(i32 noundef 0, ptr noundef @.str.92)
  %126 = call i32 (i32, ptr, ...) @logg(i32 noundef 0, ptr noundef @.str.93)
  %127 = call i32 (i32, ptr, ...) @logg(i32 noundef 0, ptr noundef @.str.94)
  %128 = call i32 (i32, ptr, ...) @logg(i32 noundef 0, ptr noundef @.str.95)
  %129 = getelementptr inbounds [26 x i8], ptr %14, i64 0, i64 0
  %130 = call i32 (i32, ptr, ...) @logg(i32 noundef 4, ptr noundef @.str.85, ptr noundef %129)
  br label %140

131:                                              ; preds = %39
  %132 = load ptr, ptr %4, align 8
  %133 = call i32 (i32, ptr, ...) @logg(i32 noundef 0, ptr noundef @.str.115, ptr noundef %132)
  %134 = load i32, ptr %7, align 4
  store i32 %134, ptr %8, align 4
  br label %141

135:                                              ; preds = %73
  br label %136

136:                                              ; preds = %135
  %137 = load i64, ptr %9, align 8
  %138 = add nsw i64 %137, 1
  store i64 %138, ptr %9, align 8
  br label %34

139:                                              ; preds = %34
  br label %140

140:                                              ; preds = %139, %115, %60
  store i32 0, ptr %8, align 4
  br label %141

141:                                              ; preds = %140, %131, %113, %103, %80, %69, %28, %21
  %142 = load ptr, ptr %10, align 8
  %143 = icmp ne ptr null, %142
  br i1 %143, label %144, label %146

144:                                              ; preds = %141
  %145 = load ptr, ptr %10, align 8
  call void @free(ptr noundef %145) #10
  br label %146

146:                                              ; preds = %144, %141
  %147 = load i32, ptr %8, align 4
  ret i32 %147
}