; Function Attrs: nounwind uwtable
define range(i32 19, 18) i32 @fc_download_url_database(ptr noundef %0, ptr noundef %1, ptr noundef %2) local_unnamed_addr #1 {
  %4 = alloca ptr, align 8
  %5 = alloca i32, align 4
  %6 = alloca [26 x i8], align 16
  %7 = alloca [26 x i8], align 16
  store ptr null, ptr %4, align 8
  %8 = icmp eq ptr %0, null
  %9 = icmp eq ptr %2, null
  %or.cond = or i1 %8, %9
  br i1 %or.cond, label %10, label %12

10:                                               ; preds = %3
  %11 = tail call i32 (i32, ptr, ...) @logg(i32 noundef 4, ptr noundef nonnull @.str.110) #15
  br label %.loopexit

12:                                               ; preds = %3
  store i32 0, ptr %2, align 4
  %13 = load ptr, ptr @g_databaseDirectory, align 8
  %14 = tail call i32 @chdir(ptr noundef %13) #15
  %.not = icmp eq i32 %14, 0
  %15 = load ptr, ptr @g_databaseDirectory, align 8
  br i1 %.not, label %18, label %16

16:                                               ; preds = %12
  %17 = tail call i32 (i32, ptr, ...) @logg(i32 noundef 5, ptr noundef nonnull @.str.33, ptr noundef %15) #15
  br label %.loopexit

18:                                               ; preds = %12
  %19 = tail call i32 (i32, ptr, ...) @logg(i32 noundef 2, ptr noundef nonnull @.str.34, ptr noundef %15) #15
  %20 = load i32, ptr @g_maxAttempts, align 4
  %.not2937 = icmp eq i32 %20, 0
  br i1 %.not2937, label %.loopexit, label %.lr.ph.preheader

.lr.ph.preheader:                                 ; preds = %18
  %21 = zext i32 %20 to i64
  br label %.lr.ph

.lr.ph:                                           ; preds = %.lr.ph.preheader, %37
  %22 = phi i64 [ %42, %37 ], [ %21, %.lr.ph.preheader ]
  %.02238 = phi i64 [ %40, %37 ], [ 1, %.lr.ph.preheader ]
  store i32 0, ptr %5, align 4
  %23 = icmp eq i64 %.02238, %22
  %24 = zext i1 %23 to i32
  %25 = call i32 @updatecustomdb(ptr noundef %0, ptr noundef %1, i32 noundef %24, ptr noundef nonnull %5, ptr noundef nonnull %4, ptr noundef nonnull %2) #15
  switch i32 %25, label %91 [
    i32 0, label %26
    i32 5, label %33
    i32 7, label %33
    i32 11, label %33
    i32 17, label %45
    i32 18, label %71
  ]

26:                                               ; preds = %.lr.ph
  %27 = load i32, ptr %2, align 4
  %.not31 = icmp eq i32 %27, 0
  %28 = load ptr, ptr %4, align 8
  br i1 %.not31, label %31, label %29

29:                                               ; preds = %26
  %30 = call i32 (i32, ptr, ...) @logg(i32 noundef 2, ptr noundef nonnull @.str.111, ptr noundef %28) #15
  br label %.loopexit

31:                                               ; preds = %26
  %32 = call i32 (i32, ptr, ...) @logg(i32 noundef 2, ptr noundef nonnull @.str.112, ptr noundef %28) #15
  br label %.loopexit

33:                                               ; preds = %.lr.ph, %.lr.ph, %.lr.ph
  %34 = load i32, ptr @g_maxAttempts, align 4
  %35 = zext i32 %34 to i64
  %36 = icmp samesign ult i64 %.02238, %35
  br i1 %36, label %37, label %43

37:                                               ; preds = %33
  %38 = call i32 (i32, ptr, ...) @logg(i32 noundef 0, ptr noundef nonnull @.str.64) #15
  %39 = call i32 @sleep(i32 noundef 5) #15
  %40 = add nuw nsw i64 %.02238, 1
  %41 = load i32, ptr @g_maxAttempts, align 4
  %42 = zext i32 %41 to i64
  %.not29.not = icmp samesign ult i64 %.02238, %42
  br i1 %.not29.not, label %.lr.ph, label %.loopexit

43:                                               ; preds = %33
  %44 = call i32 (i32, ptr, ...) @logg(i32 noundef 0, ptr noundef nonnull @.str.113, ptr noundef %0) #15
  br label %.loopexit

45:                                               ; preds = %.lr.ph
  %46 = load ptr, ptr @g_freshclamDat, align 8
  %47 = getelementptr inbounds nuw i8, ptr %46, i64 48
  %48 = call ptr @localtime(ptr noundef nonnull %47) #15
  %49 = icmp eq ptr %48, null
  br i1 %49, label %50, label %52

50:                                               ; preds = %45
  %51 = call i32 (i32, ptr, ...) @logg(i32 noundef 5, ptr noundef nonnull @.str.68) #15
  br label %.loopexit

52:                                               ; preds = %45
  %53 = call i64 @strftime(ptr noundef nonnull %6, i64 noundef 26, ptr noundef nonnull @.str.69, ptr noundef nonnull %48) #15
  %54 = call i32 (i32, ptr, ...) @logg(i32 noundef 4, ptr noundef nonnull @.str.70) #15
  %55 = call i32 (i32, ptr, ...) @logg(i32 noundef 0, ptr noundef nonnull @.str.71) #15
  %56 = call i32 (i32, ptr, ...) @logg(i32 noundef 0, ptr noundef nonnull @.str.72) #15
  %57 = call i32 (i32, ptr, ...) @logg(i32 noundef 0, ptr noundef nonnull @.str.73) #15
  %58 = call i32 (i32, ptr, ...) @logg(i32 noundef 0, ptr noundef nonnull @.str.74) #15
  %59 = call i32 (i32, ptr, ...) @logg(i32 noundef 0, ptr noundef nonnull @.str.75) #15
  %60 = call i32 (i32, ptr, ...) @logg(i32 noundef 0, ptr noundef nonnull @.str.76) #15
  %61 = call i32 (i32, ptr, ...) @logg(i32 noundef 0, ptr noundef nonnull @.str.77) #15
  %62 = call i32 (i32, ptr, ...) @logg(i32 noundef 0, ptr noundef nonnull @.str.114) #15
  %63 = call i32 (i32, ptr, ...) @logg(i32 noundef 0, ptr noundef nonnull @.str.81) #15
  %64 = call i32 (i32, ptr, ...) @logg(i32 noundef 0, ptr noundef nonnull @.str.82) #15
  %65 = load i8, ptr @g_lastRay, align 16
  %.not30 = icmp eq i8 %65, 0
  br i1 %.not30, label %69, label %66

66:                                               ; preds = %52
  %67 = call i32 (i32, ptr, ...) @logg(i32 noundef 0, ptr noundef nonnull @.str.83, ptr noundef nonnull @g_lastRay) #15
  %68 = call i32 (i32, ptr, ...) @logg(i32 noundef 0, ptr noundef nonnull @.str.84) #15
  br label %69

69:                                               ; preds = %66, %52
  %70 = call i32 (i32, ptr, ...) @logg(i32 noundef 4, ptr noundef nonnull @.str.85, ptr noundef nonnull %6) #15
  br label %.loopexit

71:                                               ; preds = %.lr.ph
  %72 = load ptr, ptr @g_freshclamDat, align 8
  %73 = getelementptr inbounds nuw i8, ptr %72, i64 48
  %74 = call ptr @localtime(ptr noundef nonnull %73) #15
  %75 = icmp eq ptr %74, null
  br i1 %75, label %76, label %78

76:                                               ; preds = %71
  %77 = call i32 (i32, ptr, ...) @logg(i32 noundef 5, ptr noundef nonnull @.str.68) #15
  br label %.loopexit

78:                                               ; preds = %71
  %79 = call i64 @strftime(ptr noundef nonnull %7, i64 noundef 26, ptr noundef nonnull @.str.69, ptr noundef nonnull %74) #15
  %80 = call i32 (i32, ptr, ...) @logg(i32 noundef 4, ptr noundef nonnull @.str.86) #15
  %81 = call i32 (i32, ptr, ...) @logg(i32 noundef 0, ptr noundef nonnull @.str.87) #15
  %82 = call i32 (i32, ptr, ...) @logg(i32 noundef 0, ptr noundef nonnull @.str.88) #15
  %83 = call i32 (i32, ptr, ...) @logg(i32 noundef 0, ptr noundef nonnull @.str.89) #15
  %84 = call i32 (i32, ptr, ...) @logg(i32 noundef 0, ptr noundef nonnull @.str.90) #15
  %85 = call i32 (i32, ptr, ...) @logg(i32 noundef 0, ptr noundef nonnull @.str.91) #15
  %86 = call i32 (i32, ptr, ...) @logg(i32 noundef 0, ptr noundef nonnull @.str.92) #15
  %87 = call i32 (i32, ptr, ...) @logg(i32 noundef 0, ptr noundef nonnull @.str.93) #15
  %88 = call i32 (i32, ptr, ...) @logg(i32 noundef 0, ptr noundef nonnull @.str.94) #15
  %89 = call i32 (i32, ptr, ...) @logg(i32 noundef 0, ptr noundef nonnull @.str.95) #15
  %90 = call i32 (i32, ptr, ...) @logg(i32 noundef 4, ptr noundef nonnull @.str.85, ptr noundef nonnull %7) #15
  br label %.loopexit

91:                                               ; preds = %.lr.ph
  %92 = call i32 (i32, ptr, ...) @logg(i32 noundef 0, ptr noundef nonnull @.str.115, ptr noundef %0) #15
  br label %.loopexit

.loopexit:                                        ; preds = %37, %18, %78, %31, %29, %91, %76, %69, %50, %43, %16, %10
  %.0 = phi i32 [ 16, %10 ], [ 3, %16 ], [ %25, %91 ], [ 19, %76 ], [ 19, %50 ], [ 17, %69 ], [ %25, %43 ], [ 0, %29 ], [ 0, %31 ], [ 0, %78 ], [ 0, %18 ], [ 0, %37 ]
  %93 = load ptr, ptr %4, align 8
  %.not32 = icmp eq ptr %93, null
  br i1 %.not32, label %95, label %94

94:                                               ; preds = %.loopexit
  call void @free(ptr noundef nonnull %93) #15
  br label %95

95:                                               ; preds = %94, %.loopexit
  ret i32 %.0
}